target datalayout = "e-m:e-p270:32:32-p271:32:32-p272:64:64-i64:64-i128:128-f80:128-n8:16:32:64-S128"
target triple = "x86_64-pc-linux-gnu"

%struct.pos = type { [4 x [4 x i16]], [4 x i16], [4 x [4 x i8]], [4 x i32], [50 x [4 x i16]], [50 x i32], [50 x %struct.moveType], i32, i32, [4 x %struct.highCardType], [4 x %struct.highCardType] }
%struct.moveType = type { i32, i32, i32, i32 }
%struct.highCardType = type { i32, i32 }

@bitMapRank = external global [16 x i16], align 16
@_ZL9handDelta = internal constant [4 x i32] [i32 256, i32 16, i32 1, i32 0], align 16

; Function Attrs: mustprogress nounwind uwtable
define void @_Z5Undo1P3posiRK8moveType(ptr noundef %0, i32 noundef %1, ptr noundef nonnull align 4 dereferenceable(16) %2) #5 {
  %4 = alloca ptr, align 8
  %5 = alloca i32, align 4
  %6 = alloca ptr, align 8
  %7 = alloca i32, align 4
  %8 = alloca i32, align 4
  %9 = alloca i32, align 4
  store ptr %0, ptr %4, align 8
  store i32 %1, ptr %5, align 4
  store ptr %2, ptr %6, align 8
  %10 = load ptr, ptr %4, align 8
  %11 = getelementptr inbounds nuw %struct.pos, ptr %10, i32 0, i32 5
  %12 = load i32, ptr %5, align 4
  %13 = sext i32 %12 to i64
  %14 = getelementptr inbounds [50 x i32], ptr %11, i64 0, i64 %13
  %15 = load i32, ptr %14, align 4
  store i32 %15, ptr %7, align 4
  %16 = load ptr, ptr %6, align 8
  %17 = getelementptr inbounds nuw %struct.moveType, ptr %16, i32 0, i32 0
  %18 = load i32, ptr %17, align 4
  store i32 %18, ptr %8, align 4
  %19 = load ptr, ptr %6, align 8
  %20 = getelementptr inbounds nuw %struct.moveType, ptr %19, i32 0, i32 1
  %21 = load i32, ptr %20, align 4
  store i32 %21, ptr %9, align 4
  %22 = load i32, ptr %9, align 4
  %23 = sext i32 %22 to i64
  %24 = getelementptr inbounds [16 x i16], ptr @bitMapRank, i64 0, i64 %23
  %25 = load i16, ptr %24, align 2
  %26 = zext i16 %25 to i32
  %27 = load ptr, ptr %4, align 8
  %28 = getelementptr inbounds nuw %struct.pos, ptr %27, i32 0, i32 0
  %29 = load i32, ptr %7, align 4
  %30 = sext i32 %29 to i64
  %31 = getelementptr inbounds [4 x [4 x i16]], ptr %28, i64 0, i64 %30
  %32 = load i32, ptr %8, align 4
  %33 = sext i32 %32 to i64
  %34 = getelementptr inbounds [4 x i16], ptr %31, i64 0, i64 %33
  %35 = load i16, ptr %34, align 2
  %36 = zext i16 %35 to i32
  %37 = or i32 %36, %26
  %38 = trunc i32 %37 to i16
  store i16 %38, ptr %34, align 2
  %39 = load i32, ptr %9, align 4
  %40 = sext i32 %39 to i64
  %41 = getelementptr inbounds [16 x i16], ptr @bitMapRank, i64 0, i64 %40
  %42 = load i16, ptr %41, align 2
  %43 = zext i16 %42 to i32
  %44 = load ptr, ptr %4, align 8
  %45 = getelementptr inbounds nuw %struct.pos, ptr %44, i32 0, i32 1
  %46 = load i32, ptr %8, align 4
  %47 = sext i32 %46 to i64
  %48 = getelementptr inbounds [4 x i16], ptr %45, i64 0, i64 %47
  %49 = load i16, ptr %48, align 2
  %50 = zext i16 %49 to i32
  %51 = or i32 %50, %43
  %52 = trunc i32 %51 to i16
  store i16 %52, ptr %48, align 2
  %53 = load i32, ptr %8, align 4
  %54 = sext i32 %53 to i64
  %55 = getelementptr inbounds [4 x i32], ptr @_ZL9handDelta, i64 0, i64 %54
  %56 = load i32, ptr %55, align 4
  %57 = load ptr, ptr %4, align 8
  %58 = getelementptr inbounds nuw %struct.pos, ptr %57, i32 0, i32 3
  %59 = load i32, ptr %7, align 4
  %60 = sext i32 %59 to i64
  %61 = getelementptr inbounds [4 x i32], ptr %58, i64 0, i64 %60
  %62 = load i32, ptr %61, align 4
  %63 = add nsw i32 %62, %56
  store i32 %63, ptr %61, align 4
  %64 = load ptr, ptr %4, align 8
  %65 = getelementptr inbounds nuw %struct.pos, ptr %64, i32 0, i32 2
  %66 = load i32, ptr %7, align 4
  %67 = sext i32 %66 to i64
  %68 = getelementptr inbounds [4 x [4 x i8]], ptr %65, i64 0, i64 %67
  %69 = load i32, ptr %8, align 4
  %70 = sext i32 %69 to i64
  %71 = getelementptr inbounds [4 x i8], ptr %68, i64 0, i64 %70
  %72 = load i8, ptr %71, align 1
  %73 = add i8 %72, 1
  store i8 %73, ptr %71, align 1
  ret void
}