; Function Attrs: mustprogress nofree norecurse nosync nounwind willreturn memory(read, argmem: readwrite, inaccessiblemem: none) uwtable
define void @_Z5Undo1P3posiRK8moveType(ptr nocapture noundef %0, i32 noundef %1, ptr nocapture noundef nonnull readonly align 4 dereferenceable(16) %2) local_unnamed_addr #4 {
  %4 = getelementptr inbounds nuw i8, ptr %0, i64 472
  %5 = sext i32 %1 to i64
  %6 = getelementptr inbounds [50 x i32], ptr %4, i64 0, i64 %5
  %7 = load i32, ptr %6, align 4
  %8 = load i32, ptr %2, align 4
  %9 = getelementptr inbounds nuw i8, ptr %2, i64 4
  %10 = load i32, ptr %9, align 4
  %11 = sext i32 %10 to i64
  %12 = getelementptr inbounds [16 x i16], ptr @bitMapRank, i64 0, i64 %11
  %13 = load i16, ptr %12, align 2
  %14 = sext i32 %7 to i64
  %15 = sext i32 %8 to i64
  %16 = getelementptr inbounds [4 x [4 x i16]], ptr %0, i64 0, i64 %14, i64 %15
  %17 = load i16, ptr %16, align 2
  %18 = or i16 %17, %13
  store i16 %18, ptr %16, align 2
  %19 = load i16, ptr %12, align 2
  %20 = getelementptr inbounds nuw i8, ptr %0, i64 32
  %21 = getelementptr inbounds [4 x i16], ptr %20, i64 0, i64 %15
  %22 = load i16, ptr %21, align 2
  %23 = or i16 %22, %19
  store i16 %23, ptr %21, align 2
  %24 = getelementptr inbounds [4 x i32], ptr @_ZL9handDelta, i64 0, i64 %15
  %25 = load i32, ptr %24, align 4
  %26 = getelementptr inbounds nuw i8, ptr %0, i64 56
  %27 = getelementptr inbounds [4 x i32], ptr %26, i64 0, i64 %14
  %28 = load i32, ptr %27, align 4
  %29 = add nsw i32 %28, %25
  store i32 %29, ptr %27, align 4
  %30 = getelementptr inbounds nuw i8, ptr %0, i64 40
  %31 = getelementptr inbounds [4 x [4 x i8]], ptr %30, i64 0, i64 %14, i64 %15
  %32 = load i8, ptr %31, align 1
  %33 = add i8 %32, 1
  store i8 %33, ptr %31, align 1
  ret void
}